target datalayout = "e-m:e-p270:32:32-p271:32:32-p272:64:64-i64:64-i128:128-f80:128-n8:16:32:64-S128"
target triple = "x86_64-pc-linux-gnu"

%struct.ossl_record_layer_st = type { ptr, ptr, i32, i32, i32, i32, i32, ptr, i16, ptr, ptr, ptr, i64, i32, [33 x %struct.tls_buffer_st], i64, i64, %struct.tls_buffer_st, [32 x %struct.tls_rl_record_st], i64, i64, i64, i32, ptr, i64, [8 x i8], i32, i32, i64, i32, ptr, ptr, i64, ptr, ptr, i32, i32, i32, i64, i64, i64, [64 x i8], i32, i32, i32, ptr, ptr, i32, i32, i64, ptr, ptr, %struct.dtls_bitmap_st, %struct.dtls_bitmap_st, i32, ptr, ptr, ptr, ptr, ptr, i64, ptr }
%struct.tls_buffer_st = type { ptr, i64, i64, i64, i64, i32, i32 }
%struct.tls_rl_record_st = type { i32, i32, i64, i64, i64, ptr, ptr, ptr, i16, [8 x i8] }
%struct.dtls_bitmap_st = type { i64, [8 x i8] }
%struct.ossl_record_template_st = type { i8, i32, ptr, i64 }

; Function Attrs: nounwind uwtable
define i32 @tls1_allocate_write_buffers(ptr noundef %0, ptr noundef %1, i64 noundef %2, ptr noundef %3) #0 {
  %5 = alloca i32, align 4
  %6 = alloca ptr, align 8
  %7 = alloca ptr, align 8
  %8 = alloca i64, align 8
  %9 = alloca ptr, align 8
  store ptr %0, ptr %6, align 8, !tbaa !3
  store ptr %1, ptr %7, align 8, !tbaa !8
  store i64 %2, ptr %8, align 8, !tbaa !10
  store ptr %3, ptr %9, align 8, !tbaa !12
  %10 = load ptr, ptr %6, align 8, !tbaa !3
  %11 = getelementptr inbounds nuw %struct.ossl_record_layer_st, ptr %10, i32 0, i32 29
  %12 = load i32, ptr %11, align 8, !tbaa !14
  %13 = icmp ne i32 %12, 0
  br i1 %13, label %14, label %21

14:                                               ; preds = %4
  %15 = load ptr, ptr %7, align 8, !tbaa !8
  %16 = getelementptr inbounds %struct.ossl_record_template_st, ptr %15, i64 0
  %17 = getelementptr inbounds nuw %struct.ossl_record_template_st, ptr %16, i32 0, i32 0
  %18 = load i8, ptr %17, align 8, !tbaa !30
  %19 = zext i8 %18 to i32
  %20 = icmp eq i32 %19, 23
  br label %21

21:                                               ; preds = %14, %4
  %22 = phi i1 [ false, %4 ], [ %20, %14 ]
  %23 = zext i1 %22 to i32
  %24 = sext i32 %23 to i64
  %25 = load ptr, ptr %9, align 8, !tbaa !12
  store i64 %24, ptr %25, align 8, !tbaa !10
  %26 = load ptr, ptr %6, align 8, !tbaa !3
  %27 = load i64, ptr %8, align 8, !tbaa !10
  %28 = load ptr, ptr %9, align 8, !tbaa !12
  %29 = load i64, ptr %28, align 8, !tbaa !10
  %30 = add i64 %27, %29
  %31 = load ptr, ptr %9, align 8, !tbaa !12
  %32 = load i64, ptr %31, align 8, !tbaa !10
  %33 = icmp ne i64 %32, 0
  %34 = select i1 %33, i32 1116, i32 0
  %35 = sext i32 %34 to i64
  %36 = call i32 @tls_setup_write_buffer(ptr noundef %26, i64 noundef %30, i64 noundef %35, i64 noundef 0)
  %37 = icmp ne i32 %36, 0
  br i1 %37, label %39, label %38

38:                                               ; preds = %21
  store i32 0, ptr %5, align 4
  br label %40

39:                                               ; preds = %21
  store i32 1, ptr %5, align 4
  br label %40

40:                                               ; preds = %39, %38
  %41 = load i32, ptr %5, align 4
  ret i32 %41
}