; Function Attrs: nounwind uwtable
define range(i32 0, 2) i32 @tls1_allocate_write_buffers(ptr noundef %0, ptr noundef readonly captures(none) %1, i64 noundef %2, ptr noundef writeonly captures(none) initializes((0, 8)) %3) #0 {
  %5 = getelementptr inbounds nuw i8, ptr %0, i64 4120
  %6 = load i32, ptr %5, align 8, !tbaa !3
  %.not = icmp eq i32 %6, 0
  br i1 %.not, label %.thread, label %7

7:                                                ; preds = %4
  %8 = load i8, ptr %1, align 8, !tbaa !23
  %.fr = freeze i8 %8
  %9 = icmp eq i8 %.fr, 23
  %10 = zext i1 %9 to i64
  %11 = add i64 %2, %10
  %spec.select = select i1 %9, i64 1116, i64 0
  br label %.thread

.thread:                                          ; preds = %4, %7
  %.sink = phi i64 [ %10, %7 ], [ 0, %4 ]
  %12 = phi i64 [ %11, %7 ], [ %2, %4 ]
  %13 = phi i64 [ %spec.select, %7 ], [ 0, %4 ]
  store i64 %.sink, ptr %3, align 8, !tbaa !25
  %14 = tail call i32 @tls_setup_write_buffer(ptr noundef nonnull %0, i64 noundef %12, i64 noundef %13, i64 noundef 0) #5
  %.not7 = icmp ne i32 %14, 0
  %. = zext i1 %.not7 to i32
  ret i32 %.
}